Certificate:
    Data:
        Version: 3 (0x2)
        Serial Number:
            d6:78:a4:e3:e7:d3:c5:ab
    Signature Algorithm: sha256WithRSAEncryption
        Issuer: O=RH-IMA-CA, CN=Red Hat IMA CA/emailAddress=secalert@redhat.com
        Validity
            Not Before: Jul  1 16:14:51 2023 GMT
            Not After : Jan 18 16:14:51 2038 GMT
        Subject: CN=CentOS IMA release key (for verification)
        Subject Public Key Info:
            Public Key Algorithm: id-ecPublicKey
                Public-Key: (384 bit)
                pub: 
                    04:d4:d0:31:08:09:0d:97:d0:5c:c8:49:ff:90:f4:
                    3a:16:85:a3:73:a1:d9:c4:28:4c:f7:aa:a8:22:c2:
                    cf:0e:8b:d7:9a:ed:e6:f0:89:f8:85:95:72:c3:38:
                    27:2a:29:97:6a:6b:2b:01:04:a3:32:ba:f4:75:f9:
                    e4:c8:48:2f:f5:36:69:44:27:f9:35:b3:0c:c3:22:
                    24:67:51:06:d3:73:f1:56:94:20:a8:8c:82:34:c0:
                    10:ef:ce:f9:b4:7a:42
                ASN1 OID: secp384r1
                NIST CURVE: P-384
        X509v3 extensions:
            X509v3 Basic Constraints: critical
                CA:FALSE
            X509v3 Key Usage: critical
                Digital Signature
            X509v3 Extended Key Usage: critical
                Code Signing
            X509v3 Subject Key Identifier: 
                54:E5:A3:4F:16:2B:32:B7:77:FF:E3:4F:1E:8B:66:12:7C:43:5B:B5
            X509v3 Authority Key Identifier: 
                keyid:FB:31:82:5D:D0:E0:73:68:5B:26:4E:30:38:96:36:73:F7:53:95:9A

    Signature Algorithm: sha256WithRSAEncryption
         c6:1d:92:0e:92:40:d6:ae:a5:5d:4e:5d:2a:e1:0f:92:42:20:
         89:e1:a9:82:87:35:42:c9:7f:77:dd:19:e3:cf:ef:be:8b:39:
         4f:99:2e:cd:cc:a3:18:23:7f:81:4b:7d:63:5d:71:b4:4b:9c:
         ea:dc:2f:1d:16:da:4c:ed:98:bf:df:88:11:d0:8b:af:01:55:
         71:05:fe:d7:ac:78:4e:46:de:48:9f:04:74:42:c2:c8:1a:fc:
         c5:46:6a:99:3e:9a:b0:e4:04:07:48:e2:4c:65:e5:01:a8:ad:
         3c:8d:c0:ca:c5:73:23:36:88:27:54:8b:90:f8:ea:55:fc:eb:
         b8:69:a5:8b:a0:1d:8b:f1:93:dd:71:9e:e9:88:f0:2d:0e:7d:
         86:a4:8d:0b:fd:00:c9:c0:73:aa:b1:65:b1:60:6e:a4:09:1b:
         3e:30:d9:62:2a:15:d6:50:2a:6a:fd:24:e7:8c:93:78:4a:28:
         d5:b1:d9:ba:1b:8d:ef:48:0d:f4:8c:79:90:0f:95:8d:79:39:
         8d:41:a5:fc:6f:e4:ef:5c:ee:3b:f4:c3:2c:c3:a0:b7:61:ac:
         7e:e9:eb:a0:3a:ba:05:2c:bd:aa:a9:1f:c5:b9:ee:72:f6:c4:
         54:1f:71:3b:e1:70:1a:30:f4:04:18:50:60:c4:5a:da:93:cd:
         b6:f6:67:c8
-----BEGIN CERTIFICATE-----
MIIC0jCCAbqgAwIBAgIJANZ4pOPn08WrMA0GCSqGSIb3DQEBCwUAMFExEjAQBgNV
BAoMCVJILUlNQS1DQTEXMBUGA1UEAwwOUmVkIEhhdCBJTUEgQ0ExIjAgBgkqhkiG
9w0BCQEWE3NlY2FsZXJ0QHJlZGhhdC5jb20wHhcNMjMwNzAxMTYxNDUxWhcNMzgw
MTE4MTYxNDUxWjA0MTIwMAYDVQQDDClDZW50T1MgSU1BIHJlbGVhc2Uga2V5IChm
b3IgdmVyaWZpY2F0aW9uKTB2MBAGByqGSM49AgEGBSuBBAAiA2IABNTQMQgJDZfQ
XMhJ/5D0OhaFo3Oh2cQoTPeqqCLCzw6L15rt5vCJ+IWVcsM4Jyopl2prKwEEozK6
9HX55MhIL/U2aUQn+TWzDMMiJGdRBtNz8VaUIKiMgjTAEO/O+bR6QqN4MHYwDAYD
VR0TAQH/BAIwADAOBgNVHQ8BAf8EBAMCB4AwFgYDVR0lAQH/BAwwCgYIKwYBBQUH
AwMwHQYDVR0OBBYEFFTlo08WKzK3d//jTx6LZhJ8Q1u1MB8GA1UdIwQYMBaAFPsx
gl3Q4HNoWyZOMDiWNnP3U5WaMA0GCSqGSIb3DQEBCwUAA4IBAQDGHZIOkkDWrqVd
Tl0q4Q+SQiCJ4amChzVCyX933Rnjz+++izlPmS7NzKMYI3+BS31jXXG0S5zq3C8d
FtpM7Zi/34gR0IuvAVVxBf7XrHhORt5InwR0QsLIGvzFRmqZPpqw5AQHSOJMZeUB
qK08jcDKxXMjNognVIuQ+OpV/Ou4aaWLoB2L8ZPdcZ7piPAtDn2GpI0L/QDJwHOq
sWWxYG6kCRs+MNliKhXWUCpq/STnjJN4SijVsdm6G43vSA30jHmQD5WNeTmNQaX8
b+TvXO479MMsw6C3Yax+6eugOroFLL2qqR/Fue5y9sRUH3E74XAaMPQEGFBgxFra
k8229mfI
-----END CERTIFICATE-----
