Certificate:
    Data:
        Version: 3 (0x2)
        Serial Number:
            d6:78:a4:e3:e7:d3:c5:aa
    Signature Algorithm: sha256WithRSAEncryption
        Issuer: O=RH-IMA-CA, CN=Red Hat IMA CA/emailAddress=secalert@redhat.com
        Validity
            Not Before: Jul  1 16:14:28 2023 GMT
            Not After : Jan 18 16:14:28 2038 GMT
        Subject: CN=CentOS IMA beta key (for verification)
        Subject Public Key Info:
            Public Key Algorithm: id-ecPublicKey
                Public-Key: (384 bit)
                pub: 
                    04:6c:6d:44:6d:eb:55:31:56:11:ab:a7:dc:cc:34:
                    72:9c:9b:05:5c:d8:28:36:c8:04:05:5a:c8:33:b5:
                    ba:de:ba:f5:0d:a9:1f:02:c1:43:78:e8:0a:2f:05:
                    e9:a9:ce:c4:24:5b:d6:b2:ce:cf:06:52:7a:7a:d9:
                    3f:dd:b3:09:b1:22:90:e4:95:4e:07:80:f4:9c:73:
                    e9:6c:00:09:ed:b1:68:76:c5:59:7e:74:a4:c3:cf:
                    a1:84:20:51:f6:29:2e
                ASN1 OID: secp384r1
                NIST CURVE: P-384
        X509v3 extensions:
            X509v3 Basic Constraints: critical
                CA:FALSE
            X509v3 Key Usage: critical
                Digital Signature
            X509v3 Extended Key Usage: critical
                Code Signing
            X509v3 Subject Key Identifier: 
                61:BA:CE:C0:D7:97:EA:49:9F:D8:92:79:41:57:19:0A:D6:04:63:E1
            X509v3 Authority Key Identifier: 
                keyid:FB:31:82:5D:D0:E0:73:68:5B:26:4E:30:38:96:36:73:F7:53:95:9A

    Signature Algorithm: sha256WithRSAEncryption
         8b:28:5a:ca:d3:2a:ec:e2:c6:89:f8:4d:e9:ff:c8:31:47:7b:
         93:17:c1:55:48:40:ce:be:1c:58:ff:6a:83:55:07:72:70:c7:
         a3:25:91:70:90:ab:9d:bc:d3:63:4e:aa:f2:2f:ee:0c:05:a5:
         8e:2e:98:7b:41:44:37:66:87:80:94:56:b1:1f:13:99:d0:80:
         0b:e8:ec:50:cf:8c:90:53:cb:b1:9c:35:cf:b7:75:1f:ad:77:
         52:d2:06:56:7a:37:16:fe:bb:c2:aa:de:72:5d:b3:4b:9f:d3:
         05:c6:4a:36:d2:14:6b:9a:b3:64:62:4b:d5:9d:aa:71:ab:11:
         c0:08:17:e1:f9:88:49:c7:6f:74:ff:02:04:ee:cd:a2:75:5b:
         79:19:ed:ad:14:71:b4:19:56:ed:fe:7b:61:7e:d4:97:b5:c7:
         a5:05:41:4c:9f:17:91:71:71:bc:12:2b:d8:6c:2b:c0:02:93:
         ed:28:30:9b:7f:a1:93:8c:32:74:fe:6c:c0:ab:68:5e:e5:3e:
         22:c9:db:d4:4e:b2:5c:d6:49:e7:1d:91:78:61:3c:ca:5e:72:
         63:74:ff:af:0d:0d:32:ae:2a:cd:9b:a1:30:95:ea:33:53:64:
         2b:13:2d:96:e3:b6:6d:f2:c2:3c:24:c8:6b:87:f8:b4:7f:72:
         30:66:f8:5d
-----BEGIN CERTIFICATE-----
MIICzzCCAbegAwIBAgIJANZ4pOPn08WqMA0GCSqGSIb3DQEBCwUAMFExEjAQBgNV
BAoMCVJILUlNQS1DQTEXMBUGA1UEAwwOUmVkIEhhdCBJTUEgQ0ExIjAgBgkqhkiG
9w0BCQEWE3NlY2FsZXJ0QHJlZGhhdC5jb20wHhcNMjMwNzAxMTYxNDI4WhcNMzgw
MTE4MTYxNDI4WjAxMS8wLQYDVQQDDCZDZW50T1MgSU1BIGJldGEga2V5IChmb3Ig
dmVyaWZpY2F0aW9uKTB2MBAGByqGSM49AgEGBSuBBAAiA2IABGxtRG3rVTFWEaun
3Mw0cpybBVzYKDbIBAVayDO1ut669Q2pHwLBQ3joCi8F6anOxCRb1rLOzwZSenrZ
P92zCbEikOSVTgeA9Jxz6WwACe2xaHbFWX50pMPPoYQgUfYpLqN4MHYwDAYDVR0T
AQH/BAIwADAOBgNVHQ8BAf8EBAMCB4AwFgYDVR0lAQH/BAwwCgYIKwYBBQUHAwMw
HQYDVR0OBBYEFGG6zsDXl+pJn9iSeUFXGQrWBGPhMB8GA1UdIwQYMBaAFPsxgl3Q
4HNoWyZOMDiWNnP3U5WaMA0GCSqGSIb3DQEBCwUAA4IBAQCLKFrK0yrs4saJ+E3p
/8gxR3uTF8FVSEDOvhxY/2qDVQdycMejJZFwkKudvNNjTqryL+4MBaWOLph7QUQ3
ZoeAlFaxHxOZ0IAL6OxQz4yQU8uxnDXPt3UfrXdS0gZWejcW/rvCqt5yXbNLn9MF
xko20hRrmrNkYkvVnapxqxHACBfh+YhJx290/wIE7s2idVt5Ge2tFHG0GVbt/nth
ftSXtcelBUFMnxeRcXG8EivYbCvAApPtKDCbf6GTjDJ0/mzAq2he5T4iydvUTrJc
1knnHZF4YTzKXnJjdP+vDQ0yrirNm6EwleozU2QrEy2W47Zt8sI8JMhrh/i0f3Iw
Zvhd
-----END CERTIFICATE-----
