Certificate:
    Data:
        Version: 3 (0x2)
        Serial Number:
            d6:78:a4:e3:e7:d3:c5:a8
    Signature Algorithm: sha256WithRSAEncryption
        Issuer: O=RH-IMA-CA, CN=Red Hat IMA CA/emailAddress=secalert@redhat.com
        Validity
            Not Before: Jul  1 16:13:38 2023 GMT
            Not After : Jan 18 16:13:38 2038 GMT
        Subject: CN=Red Hat IMA beta key (for verification)
        Subject Public Key Info:
            Public Key Algorithm: id-ecPublicKey
                Public-Key: (384 bit)
                pub: 
                    04:af:d0:5e:29:27:3a:26:05:27:74:1b:07:62:20:
                    c3:3e:40:43:73:3e:ad:e4:24:3e:b1:24:9d:72:81:
                    e3:f0:43:40:7b:82:52:dc:57:66:ed:92:af:79:c2:
                    6b:09:31:bf:50:1b:76:24:b5:2f:8f:ce:9c:65:20:
                    d4:e2:3d:37:41:0d:5d:b7:78:af:8c:d3:71:b7:10:
                    c9:70:15:77:d0:8f:09:97:3f:7e:83:7d:67:98:8f:
                    cf:be:16:b5:6d:73:7d
                ASN1 OID: secp384r1
                NIST CURVE: P-384
        X509v3 extensions:
            X509v3 Basic Constraints: critical
                CA:FALSE
            X509v3 Key Usage: critical
                Digital Signature
            X509v3 Extended Key Usage: critical
                Code Signing
            X509v3 Subject Key Identifier: 
                7D:45:10:63:D2:89:7B:E3:6D:A6:62:D6:6B:36:15:E5:F0:F2:9C:D0
            X509v3 Authority Key Identifier: 
                keyid:FB:31:82:5D:D0:E0:73:68:5B:26:4E:30:38:96:36:73:F7:53:95:9A

    Signature Algorithm: sha256WithRSAEncryption
         68:9b:7d:29:e2:46:ed:03:6a:5d:d9:9e:f3:7a:0d:49:fa:22:
         40:02:3e:cb:af:a3:ee:aa:b5:43:fd:d9:1e:5b:82:89:e7:ad:
         48:03:d4:4c:50:7e:03:32:c3:eb:88:b8:b4:57:8c:1d:78:f9:
         a4:ca:d2:55:78:a1:ec:67:c8:1b:90:40:be:98:5b:fd:77:91:
         6b:7c:ed:5f:e9:b0:af:6e:71:03:bc:03:5f:ad:f0:01:bc:24:
         0d:ea:1e:04:9e:10:ee:5c:97:17:49:3e:8e:7b:51:17:1a:e2:
         06:09:04:d4:6d:94:ea:30:57:fd:70:d0:56:6c:36:81:9f:81:
         75:25:98:34:9b:e8:03:14:b0:7c:8c:13:b5:59:0a:45:15:d8:
         75:c9:7a:01:a4:2d:71:a1:6d:53:b6:22:37:ab:98:d3:f0:76:
         28:8d:c3:3b:7d:c5:11:b1:89:7b:ac:41:e2:92:e9:38:4d:6d:
         07:d9:07:76:53:1a:87:ca:79:2e:5d:20:ec:8b:f2:55:56:dd:
         b1:65:ec:4c:d7:86:7b:8e:9b:a7:7f:6d:6e:7a:3f:18:e3:e3:
         e7:3f:1c:fb:44:ab:7e:0c:c2:1d:61:7c:92:73:07:a2:b4:5a:
         6b:45:64:dd:4d:c9:df:a3:e1:5f:39:db:36:f3:d0:ba:c6:be:
         97:3c:2f:e6
-----BEGIN CERTIFICATE-----
MIIC0DCCAbigAwIBAgIJANZ4pOPn08WoMA0GCSqGSIb3DQEBCwUAMFExEjAQBgNV
BAoMCVJILUlNQS1DQTEXMBUGA1UEAwwOUmVkIEhhdCBJTUEgQ0ExIjAgBgkqhkiG
9w0BCQEWE3NlY2FsZXJ0QHJlZGhhdC5jb20wHhcNMjMwNzAxMTYxMzM4WhcNMzgw
MTE4MTYxMzM4WjAyMTAwLgYDVQQDDCdSZWQgSGF0IElNQSBiZXRhIGtleSAoZm9y
IHZlcmlmaWNhdGlvbikwdjAQBgcqhkjOPQIBBgUrgQQAIgNiAASv0F4pJzomBSd0
GwdiIMM+QENzPq3kJD6xJJ1ygePwQ0B7glLcV2btkq95wmsJMb9QG3YktS+Pzpxl
INTiPTdBDV23eK+M03G3EMlwFXfQjwmXP36DfWeYj8++FrVtc32jeDB2MAwGA1Ud
EwEB/wQCMAAwDgYDVR0PAQH/BAQDAgeAMBYGA1UdJQEB/wQMMAoGCCsGAQUFBwMD
MB0GA1UdDgQWBBR9RRBj0ol7422mYtZrNhXl8PKc0DAfBgNVHSMEGDAWgBT7MYJd
0OBzaFsmTjA4ljZz91OVmjANBgkqhkiG9w0BAQsFAAOCAQEAaJt9KeJG7QNqXdme
83oNSfoiQAI+y6+j7qq1Q/3ZHluCieetSAPUTFB+AzLD64i4tFeMHXj5pMrSVXih
7GfIG5BAvphb/XeRa3ztX+mwr25xA7wDX63wAbwkDeoeBJ4Q7lyXF0k+jntRFxri
BgkE1G2U6jBX/XDQVmw2gZ+BdSWYNJvoAxSwfIwTtVkKRRXYdcl6AaQtcaFtU7Yi
N6uY0/B2KI3DO33FEbGJe6xB4pLpOE1tB9kHdlMah8p5Ll0g7IvyVVbdsWXsTNeG
e46bp39tbno/GOPj5z8c+0SrfgzCHWF8knMHorRaa0Vk3U3J36PhXznbNvPQusa+
lzwv5g==
-----END CERTIFICATE-----
