Certificate:
    Data:
        Version: 3 (0x2)
        Serial Number:
            d6:78:a4:e3:e7:d3:c5:a9
    Signature Algorithm: sha256WithRSAEncryption
        Issuer: O=RH-IMA-CA, CN=Red Hat IMA CA/emailAddress=secalert@redhat.com
        Validity
            Not Before: Jul  1 16:14:04 2023 GMT
            Not After : Jan 18 16:14:04 2038 GMT
        Subject: CN=Red Hat IMA release key (for verification)
        Subject Public Key Info:
            Public Key Algorithm: id-ecPublicKey
                Public-Key: (384 bit)
                pub: 
                    04:4f:0e:ef:bf:e2:23:89:91:27:4e:7c:32:a1:d0:
                    c0:26:92:de:37:8d:b0:5d:ea:7f:d6:27:18:9b:b4:
                    62:be:06:85:3d:f9:cc:47:7e:c7:bd:91:54:53:62:
                    b4:c0:8a:43:48:c2:59:07:2b:88:d7:3d:4b:30:8d:
                    6c:32:fb:a5:da:dc:8a:85:e9:61:44:18:fc:d9:8b:
                    f5:5e:38:c8:85:77:ca:73:68:ce:48:df:af:3d:06:
                    43:2f:4b:6c:0c:cd:88
                ASN1 OID: secp384r1
                NIST CURVE: P-384
        X509v3 extensions:
            X509v3 Basic Constraints: critical
                CA:FALSE
            X509v3 Key Usage: critical
                Digital Signature
            X509v3 Extended Key Usage: critical
                Code Signing
            X509v3 Subject Key Identifier: 
                22:FA:01:DC:0E:A0:26:9F:69:A8:67:E5:CF:E4:9C:FB:D3:32:04:49
            X509v3 Authority Key Identifier: 
                keyid:FB:31:82:5D:D0:E0:73:68:5B:26:4E:30:38:96:36:73:F7:53:95:9A

    Signature Algorithm: sha256WithRSAEncryption
         1a:1e:c1:2d:65:ad:f0:24:ec:9e:a7:fd:d4:ea:e1:54:dc:31:
         1c:62:8c:29:0b:7a:56:6e:f7:b4:87:92:3e:ff:d5:40:4b:24:
         a1:68:6e:ee:9c:35:65:a1:3f:8e:f3:8b:9b:18:b1:03:ed:fb:
         50:2e:a3:23:d1:93:1d:d6:82:0a:10:6f:34:be:d6:3a:bd:76:
         8c:44:0e:ad:a7:2a:c4:8e:8d:c4:e4:8d:51:d8:26:b7:38:89:
         d1:23:a0:23:88:76:fa:f1:27:91:57:3e:b2:0f:cf:73:53:db:
         20:40:5d:82:b9:e9:bc:a2:94:09:57:fb:85:0d:56:4b:dc:19:
         65:12:2f:6d:6a:3b:be:35:1f:d4:52:ea:e4:72:36:f9:fe:cb:
         d4:1b:0f:e3:0e:88:7c:68:58:28:c3:06:5f:bd:d2:f9:2e:1a:
         30:f0:63:65:2d:55:e1:a4:fd:97:cf:ff:c0:52:22:1c:24:a3:
         6e:de:7a:c9:9d:75:d2:d0:82:b0:7f:6f:db:21:01:69:f0:54:
         76:04:19:68:2c:22:72:dd:3b:0d:04:d5:ad:5a:80:30:68:90:
         6e:c2:27:f4:28:af:1b:78:f6:0a:70:74:5c:3a:61:42:f5:63:
         7c:83:12:5a:1b:43:bc:d4:1b:28:b5:ef:98:c5:14:04:42:80:
         dd:54:30:a4
-----BEGIN CERTIFICATE-----
MIIC0zCCAbugAwIBAgIJANZ4pOPn08WpMA0GCSqGSIb3DQEBCwUAMFExEjAQBgNV
BAoMCVJILUlNQS1DQTEXMBUGA1UEAwwOUmVkIEhhdCBJTUEgQ0ExIjAgBgkqhkiG
9w0BCQEWE3NlY2FsZXJ0QHJlZGhhdC5jb20wHhcNMjMwNzAxMTYxNDA0WhcNMzgw
MTE4MTYxNDA0WjA1MTMwMQYDVQQDDCpSZWQgSGF0IElNQSByZWxlYXNlIGtleSAo
Zm9yIHZlcmlmaWNhdGlvbikwdjAQBgcqhkjOPQIBBgUrgQQAIgNiAARPDu+/4iOJ
kSdOfDKh0MAmkt43jbBd6n/WJxibtGK+BoU9+cxHfse9kVRTYrTAikNIwlkHK4jX
PUswjWwy+6Xa3IqF6WFEGPzZi/VeOMiFd8pzaM5I3689BkMvS2wMzYijeDB2MAwG
A1UdEwEB/wQCMAAwDgYDVR0PAQH/BAQDAgeAMBYGA1UdJQEB/wQMMAoGCCsGAQUF
BwMDMB0GA1UdDgQWBBQi+gHcDqAmn2moZ+XP5Jz70zIESTAfBgNVHSMEGDAWgBT7
MYJd0OBzaFsmTjA4ljZz91OVmjANBgkqhkiG9w0BAQsFAAOCAQEAGh7BLWWt8CTs
nqf91OrhVNwxHGKMKQt6Vm73tIeSPv/VQEskoWhu7pw1ZaE/jvOLmxixA+37UC6j
I9GTHdaCChBvNL7WOr12jEQOracqxI6NxOSNUdgmtziJ0SOgI4h2+vEnkVc+sg/P
c1PbIEBdgrnpvKKUCVf7hQ1WS9wZZRIvbWo7vjUf1FLq5HI2+f7L1BsP4w6IfGhY
KMMGX73S+S4aMPBjZS1V4aT9l8//wFIiHCSjbt56yZ110tCCsH9v2yEBafBUdgQZ
aCwict07DQTVrVqAMGiQbsIn9CivG3j2CnB0XDphQvVjfIMSWhtDvNQbKLXvmMUU
BEKA3VQwpA==
-----END CERTIFICATE-----
